target datalayout = "e-m:e-p270:32:32-p271:32:32-p272:64:64-i64:64-i128:128-f80:128-n8:16:32:64-S128"
target triple = "x86_64-pc-linux-gnu"

@.str.31 = private unnamed_addr constant [2 x i8] c"_\00", align 1

; Function Attrs: mustprogress uwtable
define internal noundef ptr @_ZL5getIDPKcS0_Pc(ptr noundef %0, ptr noundef %1, ptr noundef %2) #2 {
  %4 = alloca ptr, align 8
  %5 = alloca ptr, align 8
  %6 = alloca ptr, align 8
  store ptr %0, ptr %4, align 8, !tbaa !4
  store ptr %1, ptr %5, align 8, !tbaa !4
  store ptr %2, ptr %6, align 8, !tbaa !4
  %7 = load ptr, ptr %5, align 8, !tbaa !4
  %8 = icmp eq ptr %7, null
  br i1 %8, label %9, label %23

9:                                                ; preds = %3
  %10 = load ptr, ptr %4, align 8, !tbaa !4
  %11 = call i64 @strlen(ptr noundef %10) #13
  %12 = mul i64 1, %11
  %13 = add i64 %12, 1
  %14 = call noalias ptr @uprv_malloc_77(i64 noundef %13) #14
  store ptr %14, ptr %6, align 8, !tbaa !4
  %15 = load ptr, ptr %6, align 8, !tbaa !4
  %16 = load ptr, ptr %4, align 8, !tbaa !4
  %17 = call i64 @strlen(ptr noundef %16) #13
  %18 = mul i64 1, %17
  %19 = add i64 %18, 1
  call void @llvm.memset.p0.i64(ptr align 1 %15, i8 0, i64 %19, i1 false)
  %20 = load ptr, ptr %6, align 8, !tbaa !4
  %21 = load ptr, ptr %4, align 8, !tbaa !4
  %22 = call ptr @strcpy(ptr noundef %20, ptr noundef %21) #12
  br label %57

23:                                               ; preds = %3
  %24 = load ptr, ptr %4, align 8, !tbaa !4
  %25 = call i64 @strlen(ptr noundef %24) #13
  %26 = add i64 %25, 1
  %27 = load ptr, ptr %5, align 8, !tbaa !4
  %28 = call i64 @strlen(ptr noundef %27) #13
  %29 = add i64 %26, %28
  %30 = mul i64 1, %29
  %31 = add i64 %30, 1
  %32 = call noalias ptr @uprv_malloc_77(i64 noundef %31) #14
  store ptr %32, ptr %6, align 8, !tbaa !4
  %33 = load ptr, ptr %6, align 8, !tbaa !4
  %34 = load ptr, ptr %4, align 8, !tbaa !4
  %35 = call i64 @strlen(ptr noundef %34) #13
  %36 = add i64 %35, 1
  %37 = load ptr, ptr %5, align 8, !tbaa !4
  %38 = call i64 @strlen(ptr noundef %37) #13
  %39 = add i64 %36, %38
  %40 = mul i64 1, %39
  %41 = add i64 %40, 1
  call void @llvm.memset.p0.i64(ptr align 1 %33, i8 0, i64 %41, i1 false)
  %42 = load ptr, ptr %4, align 8, !tbaa !4
  %43 = getelementptr inbounds i8, ptr %42, i64 0
  %44 = load i8, ptr %43, align 1, !tbaa !14
  %45 = sext i8 %44 to i32
  %46 = icmp ne i32 %45, 0
  br i1 %46, label %47, label %53

47:                                               ; preds = %23
  %48 = load ptr, ptr %6, align 8, !tbaa !4
  %49 = load ptr, ptr %4, align 8, !tbaa !4
  %50 = call ptr @strcpy(ptr noundef %48, ptr noundef %49) #12
  %51 = load ptr, ptr %6, align 8, !tbaa !4
  %52 = call ptr @strcat(ptr noundef %51, ptr noundef @.str.31) #12
  br label %53

53:                                               ; preds = %47, %23
  %54 = load ptr, ptr %6, align 8, !tbaa !4
  %55 = load ptr, ptr %5, align 8, !tbaa !4
  %56 = call ptr @strcat(ptr noundef %54, ptr noundef %55) #12
  br label %57

57:                                               ; preds = %53, %9
  %58 = load ptr, ptr %6, align 8, !tbaa !4
  ret ptr %58
}