; Function Attrs: mustprogress uwtable
define internal fastcc noundef ptr @_ZL5getIDPKcS0_Pc(ptr noundef readonly captures(none) %0, ptr noundef readonly %1) unnamed_addr #2 {
  %3 = icmp eq ptr %1, null
  %4 = tail call i64 @strlen(ptr noundef nonnull dereferenceable(1) %0) #15
  br i1 %3, label %5, label %11

5:                                                ; preds = %2
  %6 = add i64 %4, 1
  %7 = tail call noalias ptr @uprv_malloc_77(i64 noundef %6) #14
  %8 = tail call i64 @strlen(ptr noundef nonnull dereferenceable(1) %0) #15
  %9 = add i64 %8, 1
  tail call void @llvm.memset.p0.i64(ptr align 1 %7, i8 0, i64 %9, i1 false)
  %10 = tail call ptr @strcpy(ptr noundef nonnull dereferenceable(1) %7, ptr noundef nonnull dereferenceable(1) %0) #13
  br label %25

11:                                               ; preds = %2
  %12 = tail call i64 @strlen(ptr noundef nonnull dereferenceable(1) %1) #15
  %13 = add i64 %4, 2
  %14 = add i64 %13, %12
  %15 = tail call noalias ptr @uprv_malloc_77(i64 noundef %14) #14
  %16 = tail call i64 @strlen(ptr noundef nonnull dereferenceable(1) %0) #15
  %17 = tail call i64 @strlen(ptr noundef nonnull dereferenceable(1) %1) #15
  %18 = add i64 %16, 2
  %19 = add i64 %18, %17
  tail call void @llvm.memset.p0.i64(ptr align 1 %15, i8 0, i64 %19, i1 false)
  %20 = load i8, ptr %0, align 1, !tbaa !11
  %.not = icmp eq i8 %20, 0
  br i1 %.not, label %23, label %21

21:                                               ; preds = %11
  %22 = tail call ptr @strcpy(ptr noundef nonnull dereferenceable(1) %15, ptr noundef nonnull dereferenceable(1) %0) #13
  %strlen = tail call i64 @strlen(ptr nonnull dereferenceable(1) %15)
  %endptr = getelementptr inbounds i8, ptr %15, i64 %strlen
  store i16 95, ptr %endptr, align 1
  br label %23

23:                                               ; preds = %21, %11
  %24 = tail call ptr @strcat(ptr noundef nonnull dereferenceable(1) %15, ptr noundef nonnull dereferenceable(1) %1) #13
  br label %25

25:                                               ; preds = %23, %5
  %.0 = phi ptr [ %7, %5 ], [ %15, %23 ]
  ret ptr %.0
}